target datalayout = "e-m:e-p270:32:32-p271:32:32-p272:64:64-i64:64-i128:128-f80:128-n8:16:32:64-S128"
target triple = "x86_64-pc-linux-gnu"

%struct.cbs_st = type { ptr, i64 }

@.str = private unnamed_addr constant [118 x i8] c"generated/home/dtcxzyw/WorkSpace/Projects/compilers/llvm-opt-benchmark/bench/libquic/libquic/boringssl/ssl/ssl_asn1.c\00", align 1

; Function Attrs: nounwind uwtable
define hidden ptr @SSL_SESSION_from_bytes(ptr noundef %0, i64 noundef %1) #0 {
  %3 = alloca ptr, align 8
  %4 = alloca ptr, align 8
  %5 = alloca i64, align 8
  %6 = alloca %struct.cbs_st, align 8
  %7 = alloca ptr, align 8
  %8 = alloca i32, align 4
  store ptr %0, ptr %4, align 8, !tbaa !51
  store i64 %1, ptr %5, align 8, !tbaa !48
  call void @llvm.lifetime.start.p0(i64 16, ptr %6) #6
  %9 = load ptr, ptr %4, align 8, !tbaa !51
  %10 = load i64, ptr %5, align 8, !tbaa !48
  call void @CBS_init(ptr noundef %6, ptr noundef %9, i64 noundef %10)
  call void @llvm.lifetime.start.p0(i64 8, ptr %7) #6
  %11 = call ptr @SSL_SESSION_parse(ptr noundef %6)
  store ptr %11, ptr %7, align 8, !tbaa !6
  %12 = load ptr, ptr %7, align 8, !tbaa !6
  %13 = icmp eq ptr %12, null
  br i1 %13, label %14, label %15

14:                                               ; preds = %2
  store ptr null, ptr %3, align 8
  store i32 1, ptr %8, align 4
  br label %22

15:                                               ; preds = %2
  %16 = call i64 @CBS_len(ptr noundef %6)
  %17 = icmp ne i64 %16, 0
  br i1 %17, label %18, label %20

18:                                               ; preds = %15
  call void @ERR_put_error(i32 noundef 16, i32 noundef 0, i32 noundef 160, ptr noundef @.str, i32 noundef 691)
  %19 = load ptr, ptr %7, align 8, !tbaa !6
  call void @SSL_SESSION_free(ptr noundef %19)
  store ptr null, ptr %3, align 8
  store i32 1, ptr %8, align 4
  br label %22

20:                                               ; preds = %15
  %21 = load ptr, ptr %7, align 8, !tbaa !6
  store ptr %21, ptr %3, align 8
  store i32 1, ptr %8, align 4
  br label %22

22:                                               ; preds = %20, %18, %14
  call void @llvm.lifetime.end.p0(i64 8, ptr %7) #6
  call void @llvm.lifetime.end.p0(i64 16, ptr %6) #6
  %23 = load ptr, ptr %3, align 8
  ret ptr %23
}