; Function Attrs: nounwind uwtable
define hidden ptr @SSL_SESSION_from_bytes(ptr noundef %0, i64 noundef %1) local_unnamed_addr #0 {
  %3 = alloca %struct.cbs_st, align 8
  call void @llvm.lifetime.start.p0(i64 16, ptr nonnull %3) #7
  call void @CBS_init(ptr noundef nonnull %3, ptr noundef %0, i64 noundef %1) #7
  %4 = call fastcc ptr @SSL_SESSION_parse(ptr noundef %3)
  %5 = icmp eq ptr %4, null
  br i1 %5, label %9, label %6

6:                                                ; preds = %2
  %7 = call i64 @CBS_len(ptr noundef nonnull %3) #7
  %.not = icmp eq i64 %7, 0
  br i1 %.not, label %9, label %8

8:                                                ; preds = %6
  call void @ERR_put_error(i32 noundef 16, i32 noundef 0, i32 noundef 160, ptr noundef nonnull @.str, i32 noundef 691) #7
  call void @SSL_SESSION_free(ptr noundef nonnull %4) #7
  br label %9

9:                                                ; preds = %6, %2, %8
  %.0 = phi ptr [ null, %8 ], [ null, %2 ], [ %4, %6 ]
  call void @llvm.lifetime.end.p0(i64 16, ptr nonnull %3) #7
  ret ptr %.0
}